target datalayout = "e-m:e-p270:32:32-p271:32:32-p272:64:64-i64:64-i128:128-f80:128-n8:16:32:64-S128"
target triple = "x86_64-pc-linux-gnu"

%struct.fsck_options = type { ptr, ptr, i32, i32, ptr, %struct.oidset, %struct.oidset, %struct.oidset, %struct.oidset, %struct.oidset, ptr }
%struct.oidset = type { %struct.kh_oid_set }
%struct.kh_oid_set = type { i32, i32, i32, i32, ptr, ptr, ptr }

@.str.29 = private unnamed_addr constant [12 x i8] c".gitmodules\00", align 1
@.str.30 = private unnamed_addr constant [15 x i8] c".gitattributes\00", align 1

; Function Attrs: nounwind uwtable
define dso_local i32 @fsck_finish(ptr noundef %0) #0 {
  %2 = alloca ptr, align 8
  %3 = alloca i32, align 4
  store ptr %0, ptr %2, align 8, !tbaa !24
  call void @llvm.lifetime.start.p0(i64 4, ptr %3) #11
  store i32 0, ptr %3, align 4, !tbaa !11
  %4 = load ptr, ptr %2, align 8, !tbaa !24
  %5 = getelementptr inbounds nuw %struct.fsck_options, ptr %4, i32 0, i32 6
  %6 = load ptr, ptr %2, align 8, !tbaa !24
  %7 = getelementptr inbounds nuw %struct.fsck_options, ptr %6, i32 0, i32 7
  %8 = load ptr, ptr %2, align 8, !tbaa !24
  %9 = call i32 @fsck_blobs(ptr noundef %5, ptr noundef %7, i32 noundef 33, i32 noundef 34, ptr noundef %8, ptr noundef @.str.29)
  %10 = load i32, ptr %3, align 4, !tbaa !11
  %11 = or i32 %10, %9
  store i32 %11, ptr %3, align 4, !tbaa !11
  %12 = load ptr, ptr %2, align 8, !tbaa !24
  %13 = getelementptr inbounds nuw %struct.fsck_options, ptr %12, i32 0, i32 8
  %14 = load ptr, ptr %2, align 8, !tbaa !24
  %15 = getelementptr inbounds nuw %struct.fsck_options, ptr %14, i32 0, i32 9
  %16 = load ptr, ptr %2, align 8, !tbaa !24
  %17 = call i32 @fsck_blobs(ptr noundef %13, ptr noundef %15, i32 noundef 41, i32 noundef 44, ptr noundef %16, ptr noundef @.str.30)
  %18 = load i32, ptr %3, align 4, !tbaa !11
  %19 = or i32 %18, %17
  store i32 %19, ptr %3, align 4, !tbaa !11
  %20 = load i32, ptr %3, align 4, !tbaa !11
  call void @llvm.lifetime.end.p0(i64 4, ptr %3) #11
  ret i32 %20
}