; Function Attrs: nounwind uwtable
define dso_local i32 @fsck_finish(ptr noundef %0) local_unnamed_addr #0 {
  %2 = getelementptr inbounds nuw i8, ptr %0, i64 72
  %3 = getelementptr inbounds nuw i8, ptr %0, i64 112
  %4 = tail call fastcc i32 @fsck_blobs(ptr noundef nonnull %2, ptr noundef nonnull %3, i32 noundef 33, i32 noundef 34, ptr noundef %0, ptr noundef nonnull @.str.29)
  %5 = getelementptr inbounds nuw i8, ptr %0, i64 152
  %6 = getelementptr inbounds nuw i8, ptr %0, i64 192
  %7 = tail call fastcc i32 @fsck_blobs(ptr noundef nonnull %5, ptr noundef nonnull %6, i32 noundef 41, i32 noundef 44, ptr noundef %0, ptr noundef nonnull @.str.30)
  %8 = or i32 %7, %4
  ret i32 %8
}